target datalayout = "e-m:e-p270:32:32-p271:32:32-p272:64:64-i64:64-i128:128-f80:128-n8:16:32:64-S128"
target triple = "x86_64-pc-linux-gnu"

%struct.AngleSet = type { [360 x %struct.AngleSetArc], i32, i32, double }
%struct.AngleSetArc = type { double, double, i32 }

; Function Attrs: mustprogress nounwind uwtable
define hidden noundef double @_ZN8AngleSet10coverRatioEv(ptr noundef nonnull align 8 dereferenceable(8656) %0) #8 align 2 {
  %2 = alloca ptr, align 8
  %3 = alloca i32, align 4
  %4 = alloca double, align 8
  store ptr %0, ptr %2, align 8, !tbaa !24
  %5 = load ptr, ptr %2, align 8
  call void @llvm.lifetime.start.p0(i64 4, ptr %3) #3
  %6 = getelementptr inbounds nuw %struct.AngleSet, ptr %5, i32 0, i32 1
  %7 = load i32, ptr %6, align 8, !tbaa !32
  store i32 %7, ptr %3, align 4, !tbaa !8
  call void @llvm.lifetime.start.p0(i64 8, ptr %4) #3
  store double 0.000000e+00, ptr %4, align 8, !tbaa !10
  br label %8

8:                                                ; preds = %11, %1
  %9 = load i32, ptr %3, align 4, !tbaa !8
  %10 = icmp sge i32 %9, 0
  br i1 %10, label %11, label %33

11:                                               ; preds = %8
  %12 = getelementptr inbounds nuw %struct.AngleSet, ptr %5, i32 0, i32 0
  %13 = load i32, ptr %3, align 4, !tbaa !8
  %14 = sext i32 %13 to i64
  %15 = getelementptr inbounds [360 x %struct.AngleSetArc], ptr %12, i64 0, i64 %14
  %16 = getelementptr inbounds nuw %struct.AngleSetArc, ptr %15, i32 0, i32 1
  %17 = load double, ptr %16, align 8, !tbaa !30
  %18 = getelementptr inbounds nuw %struct.AngleSet, ptr %5, i32 0, i32 0
  %19 = load i32, ptr %3, align 4, !tbaa !8
  %20 = sext i32 %19 to i64
  %21 = getelementptr inbounds [360 x %struct.AngleSetArc], ptr %18, i64 0, i64 %20
  %22 = getelementptr inbounds nuw %struct.AngleSetArc, ptr %21, i32 0, i32 0
  %23 = load double, ptr %22, align 8, !tbaa !28
  %24 = fsub double %17, %23
  %25 = load double, ptr %4, align 8, !tbaa !10
  %26 = fadd double %25, %24
  store double %26, ptr %4, align 8, !tbaa !10
  %27 = getelementptr inbounds nuw %struct.AngleSet, ptr %5, i32 0, i32 0
  %28 = load i32, ptr %3, align 4, !tbaa !8
  %29 = sext i32 %28 to i64
  %30 = getelementptr inbounds [360 x %struct.AngleSetArc], ptr %27, i64 0, i64 %29
  %31 = getelementptr inbounds nuw %struct.AngleSetArc, ptr %30, i32 0, i32 2
  %32 = load i32, ptr %31, align 8, !tbaa !31
  store i32 %32, ptr %3, align 4, !tbaa !8
  br label %8, !llvm.loop !45

33:                                               ; preds = %8
  %34 = load double, ptr %4, align 8, !tbaa !10
  %35 = fdiv double %34, 0x401921FB54442D18
  call void @llvm.lifetime.end.p0(i64 8, ptr %4) #3
  call void @llvm.lifetime.end.p0(i64 4, ptr %3) #3
  ret double %35
}