; Function Attrs: mustprogress nofree norecurse nosync nounwind willreturn memory(argmem: read) uwtable
define hidden noundef double @_ZN8AngleSet10coverRatioEv(ptr noundef nonnull readonly align 8 captures(none) dereferenceable(8656) %0) local_unnamed_addr #11 align 2 {
  %2 = getelementptr inbounds nuw i8, ptr %0, i64 8640
  %.067 = load i32, ptr %2, align 8, !tbaa !15
  %3 = icmp sgt i32 %.067, -1
  br i1 %3, label %.lr.ph, label %._crit_edge

.lr.ph:                                           ; preds = %1, %.lr.ph
  %.069 = phi i32 [ %.06, %.lr.ph ], [ %.067, %1 ]
  %.08 = phi double [ %10, %.lr.ph ], [ 0.000000e+00, %1 ]
  %4 = zext nneg i32 %.069 to i64
  %5 = getelementptr inbounds nuw [360 x %struct.AngleSetArc], ptr %0, i64 0, i64 %4
  %6 = getelementptr inbounds nuw i8, ptr %5, i64 8
  %7 = load double, ptr %6, align 8, !tbaa !25
  %8 = load double, ptr %5, align 8, !tbaa !23
  %9 = fsub double %7, %8
  %10 = fadd double %.08, %9
  %11 = getelementptr inbounds nuw i8, ptr %5, i64 16
  %.06 = load i32, ptr %11, align 8, !tbaa !15
  %12 = icmp sgt i32 %.06, -1
  br i1 %12, label %.lr.ph, label %._crit_edge, !llvm.loop !39

._crit_edge:                                      ; preds = %.lr.ph, %1
  %.0.lcssa = phi double [ 0.000000e+00, %1 ], [ %10, %.lr.ph ]
  %13 = fdiv double %.0.lcssa, 0x401921FB54442D18
  ret double %13
}